target datalayout = "e-m:e-p270:32:32-p271:32:32-p272:64:64-i64:64-i128:128-f80:128-n8:16:32:64-S128"
target triple = "x86_64-unknown-linux-gnu"

%"class.sat::literal" = type { i32 }
%"struct.sat::npn3_finder::ternary" = type { %"class.sat::literal", %"class.sat::literal", %"class.sat::literal", ptr }
%class.approx_set_tpl = type { i32 }
%class.anon.56 = type { ptr, ptr }
%"class.sat::clause" = type { i32, i32, i32, %class.approx_set_tpl, i32, [0 x %"class.sat::literal"] }

@_ZN3sat11npn3_finder7ternaryC1ENS_7literalES2_S2_PNS_6clauseE = hidden unnamed_addr alias void (ptr, i32, i32, i32, ptr), ptr @_ZN3sat11npn3_finder7ternaryC2ENS_7literalES2_S2_PNS_6clauseE

; Function Attrs: mustprogress nounwind uwtable
define linkonce_odr hidden noundef nonnull align 4 dereferenceable(4) ptr @_ZN3sat6clauseixEj(ptr noundef nonnull align 4 dereferenceable(20) %this, i32 noundef %idx) #4 comdat align 2 {
entry:
  %this.addr = alloca ptr, align 8
  %idx.addr = alloca i32, align 4
  store ptr %this, ptr %this.addr, align 8
  store i32 %idx, ptr %idx.addr, align 4
  %this1 = load ptr, ptr %this.addr, align 8
  %m_lits = getelementptr inbounds %"class.sat::clause", ptr %this1, i32 0, i32 5
  %0 = load i32, ptr %idx.addr, align 4
  %idxprom = zext i32 %0 to i64
  %arrayidx = getelementptr inbounds [0 x %"class.sat::literal"], ptr %m_lits, i64 0, i64 %idxprom
  ret ptr %arrayidx
}

; Function Attrs: mustprogress nounwind uwtable
define linkonce_odr hidden noundef i32 @_ZNK3sat6clause4sizeEv(ptr noundef nonnull align 4 dereferenceable(20) %this) #4 comdat align 2 {
entry:
  %this.addr = alloca ptr, align 8
  store ptr %this, ptr %this.addr, align 8
  %this1 = load ptr, ptr %this.addr, align 8
  %m_size = getelementptr inbounds %"class.sat::clause", ptr %this1, i32 0, i32 1
  %0 = load i32, ptr %m_size, align 4
  ret i32 %0
}

; Function Attrs: mustprogress uwtable
define internal void @"_ZZN3sat11npn3_finder15process_clausesER10ptr_vectorINS_6clauseEER9hashtableINS0_6binaryENS6_4hashENS6_2eqEERS5_INS0_7ternaryENSB_4hashENSB_2eqEEENK3$_0clERS2_"(ptr noundef nonnull align 8 dereferenceable(16) %this, ptr noundef nonnull align 4 dereferenceable(20) %c) #5 align 2 {
entry:
  %this.addr = alloca ptr, align 8
  %c.addr = alloca ptr, align 8
  %ref.tmp = alloca %"struct.sat::npn3_finder::ternary", align 8
  %agg.tmp = alloca %"class.sat::literal", align 4
  %agg.tmp3 = alloca %"class.sat::literal", align 4
  %agg.tmp5 = alloca %"class.sat::literal", align 4
  %agg.tmp9 = alloca %"class.sat::literal", align 4
  %agg.tmp11 = alloca %"class.sat::literal", align 4
  %agg.tmp13 = alloca %"class.sat::literal", align 4
  %agg.tmp18 = alloca %"class.sat::literal", align 4
  %agg.tmp20 = alloca %"class.sat::literal", align 4
  %agg.tmp22 = alloca %"class.sat::literal", align 4
  %agg.tmp27 = alloca %"class.sat::literal", align 4
  %agg.tmp29 = alloca %"class.sat::literal", align 4
  %agg.tmp31 = alloca %"class.sat::literal", align 4
  store ptr %this, ptr %this.addr, align 8
  store ptr %c, ptr %c.addr, align 8
  %this1 = load ptr, ptr %this.addr, align 8
  %0 = load ptr, ptr %c.addr, align 8
  %call = call noundef i32 @_ZNK3sat6clause4sizeEv(ptr noundef nonnull align 4 dereferenceable(20) %0)
  %cmp = icmp eq i32 %call, 3
  br i1 %cmp, label %if.then, label %if.end

if.then:                                          ; preds = %entry
  %1 = getelementptr inbounds %class.anon.56, ptr %this1, i32 0, i32 0
  %2 = load ptr, ptr %1, align 8
  %3 = load ptr, ptr %c.addr, align 8
  %call2 = call noundef nonnull align 4 dereferenceable(4) ptr @_ZN3sat6clauseixEj(ptr noundef nonnull align 4 dereferenceable(20) %3, i32 noundef 0)
  call void @llvm.memcpy.p0.p0.i64(ptr align 4 %agg.tmp, ptr align 4 %call2, i64 4, i1 false)
  %4 = load ptr, ptr %c.addr, align 8
  %call4 = call noundef nonnull align 4 dereferenceable(4) ptr @_ZN3sat6clauseixEj(ptr noundef nonnull align 4 dereferenceable(20) %4, i32 noundef 1)
  call void @llvm.memcpy.p0.p0.i64(ptr align 4 %agg.tmp3, ptr align 4 %call4, i64 4, i1 false)
  %5 = load ptr, ptr %c.addr, align 8
  %call6 = call noundef nonnull align 4 dereferenceable(4) ptr @_ZN3sat6clauseixEj(ptr noundef nonnull align 4 dereferenceable(20) %5, i32 noundef 2)
  call void @llvm.memcpy.p0.p0.i64(ptr align 4 %agg.tmp5, ptr align 4 %call6, i64 4, i1 false)
  %6 = load ptr, ptr %c.addr, align 8
  %coerce.dive = getelementptr inbounds %"class.sat::literal", ptr %agg.tmp, i32 0, i32 0
  %7 = load i32, ptr %coerce.dive, align 4
  %coerce.dive7 = getelementptr inbounds %"class.sat::literal", ptr %agg.tmp3, i32 0, i32 0
  %8 = load i32, ptr %coerce.dive7, align 4
  %coerce.dive8 = getelementptr inbounds %"class.sat::literal", ptr %agg.tmp5, i32 0, i32 0
  %9 = load i32, ptr %coerce.dive8, align 4
  call void @_ZN3sat11npn3_finder7ternaryC1ENS_7literalES2_S2_PNS_6clauseE(ptr noundef nonnull align 8 dereferenceable(24) %ref.tmp, i32 %7, i32 %8, i32 %9, ptr noundef %6)
  call void @_ZN14core_hashtableI18default_hash_entryIN3sat11npn3_finder7ternaryEENS3_4hashENS3_2eqEE6insertEOS3_(ptr noundef nonnull align 8 dereferenceable(20) %2, ptr noundef nonnull align 8 dereferenceable(24) %ref.tmp)
  %10 = getelementptr inbounds %class.anon.56, ptr %this1, i32 0, i32 1
  %11 = load ptr, ptr %10, align 8
  %12 = load ptr, ptr %c.addr, align 8
  %call10 = call noundef nonnull align 4 dereferenceable(4) ptr @_ZN3sat6clauseixEj(ptr noundef nonnull align 4 dereferenceable(20) %12, i32 noundef 0)
  call void @llvm.memcpy.p0.p0.i64(ptr align 4 %agg.tmp9, ptr align 4 %call10, i64 4, i1 false)
  %13 = load ptr, ptr %c.addr, align 8
  %call12 = call noundef nonnull align 4 dereferenceable(4) ptr @_ZN3sat6clauseixEj(ptr noundef nonnull align 4 dereferenceable(20) %13, i32 noundef 1)
  call void @llvm.memcpy.p0.p0.i64(ptr align 4 %agg.tmp11, ptr align 4 %call12, i64 4, i1 false)
  %14 = load ptr, ptr %c.addr, align 8
  %call14 = call noundef nonnull align 4 dereferenceable(4) ptr @_ZN3sat6clauseixEj(ptr noundef nonnull align 4 dereferenceable(20) %14, i32 noundef 2)
  call void @llvm.memcpy.p0.p0.i64(ptr align 4 %agg.tmp13, ptr align 4 %call14, i64 4, i1 false)
  %15 = load ptr, ptr %c.addr, align 8
  %coerce.dive15 = getelementptr inbounds %"class.sat::literal", ptr %agg.tmp9, i32 0, i32 0
  %16 = load i32, ptr %coerce.dive15, align 4
  %coerce.dive16 = getelementptr inbounds %"class.sat::literal", ptr %agg.tmp11, i32 0, i32 0
  %17 = load i32, ptr %coerce.dive16, align 4
  %coerce.dive17 = getelementptr inbounds %"class.sat::literal", ptr %agg.tmp13, i32 0, i32 0
  %18 = load i32, ptr %coerce.dive17, align 4
  call void @"_ZZN3sat11npn3_finder15process_clausesER10ptr_vectorINS_6clauseEER9hashtableINS0_6binaryENS6_4hashENS6_2eqEERS5_INS0_7ternaryENSB_4hashENSB_2eqEEENK3$_1clENS_7literalESH_SH_PS2_"(ptr noundef nonnull align 8 dereferenceable(16) %11, i32 %16, i32 %17, i32 %18, ptr noundef %15)
  %19 = getelementptr inbounds %class.anon.56, ptr %this1, i32 0, i32 1
  %20 = load ptr, ptr %19, align 8
  %21 = load ptr, ptr %c.addr, align 8
  %call19 = call noundef nonnull align 4 dereferenceable(4) ptr @_ZN3sat6clauseixEj(ptr noundef nonnull align 4 dereferenceable(20) %21, i32 noundef 0)
  call void @llvm.memcpy.p0.p0.i64(ptr align 4 %agg.tmp18, ptr align 4 %call19, i64 4, i1 false)
  %22 = load ptr, ptr %c.addr, align 8
  %call21 = call noundef nonnull align 4 dereferenceable(4) ptr @_ZN3sat6clauseixEj(ptr noundef nonnull align 4 dereferenceable(20) %22, i32 noundef 2)
  call void @llvm.memcpy.p0.p0.i64(ptr align 4 %agg.tmp20, ptr align 4 %call21, i64 4, i1 false)
  %23 = load ptr, ptr %c.addr, align 8
  %call23 = call noundef nonnull align 4 dereferenceable(4) ptr @_ZN3sat6clauseixEj(ptr noundef nonnull align 4 dereferenceable(20) %23, i32 noundef 1)
  call void @llvm.memcpy.p0.p0.i64(ptr align 4 %agg.tmp22, ptr align 4 %call23, i64 4, i1 false)
  %24 = load ptr, ptr %c.addr, align 8
  %coerce.dive24 = getelementptr inbounds %"class.sat::literal", ptr %agg.tmp18, i32 0, i32 0
  %25 = load i32, ptr %coerce.dive24, align 4
  %coerce.dive25 = getelementptr inbounds %"class.sat::literal", ptr %agg.tmp20, i32 0, i32 0
  %26 = load i32, ptr %coerce.dive25, align 4
  %coerce.dive26 = getelementptr inbounds %"class.sat::literal", ptr %agg.tmp22, i32 0, i32 0
  %27 = load i32, ptr %coerce.dive26, align 4
  call void @"_ZZN3sat11npn3_finder15process_clausesER10ptr_vectorINS_6clauseEER9hashtableINS0_6binaryENS6_4hashENS6_2eqEERS5_INS0_7ternaryENSB_4hashENSB_2eqEEENK3$_1clENS_7literalESH_SH_PS2_"(ptr noundef nonnull align 8 dereferenceable(16) %20, i32 %25, i32 %26, i32 %27, ptr noundef %24)
  %28 = getelementptr inbounds %class.anon.56, ptr %this1, i32 0, i32 1
  %29 = load ptr, ptr %28, align 8
  %30 = load ptr, ptr %c.addr, align 8
  %call28 = call noundef nonnull align 4 dereferenceable(4) ptr @_ZN3sat6clauseixEj(ptr noundef nonnull align 4 dereferenceable(20) %30, i32 noundef 2)
  call void @llvm.memcpy.p0.p0.i64(ptr align 4 %agg.tmp27, ptr align 4 %call28, i64 4, i1 false)
  %31 = load ptr, ptr %c.addr, align 8
  %call30 = call noundef nonnull align 4 dereferenceable(4) ptr @_ZN3sat6clauseixEj(ptr noundef nonnull align 4 dereferenceable(20) %31, i32 noundef 1)
  call void @llvm.memcpy.p0.p0.i64(ptr align 4 %agg.tmp29, ptr align 4 %call30, i64 4, i1 false)
  %32 = load ptr, ptr %c.addr, align 8
  %call32 = call noundef nonnull align 4 dereferenceable(4) ptr @_ZN3sat6clauseixEj(ptr noundef nonnull align 4 dereferenceable(20) %32, i32 noundef 0)
  call void @llvm.memcpy.p0.p0.i64(ptr align 4 %agg.tmp31, ptr align 4 %call32, i64 4, i1 false)
  %33 = load ptr, ptr %c.addr, align 8
  %coerce.dive33 = getelementptr inbounds %"class.sat::literal", ptr %agg.tmp27, i32 0, i32 0
  %34 = load i32, ptr %coerce.dive33, align 4
  %coerce.dive34 = getelementptr inbounds %"class.sat::literal", ptr %agg.tmp29, i32 0, i32 0
  %35 = load i32, ptr %coerce.dive34, align 4
  %coerce.dive35 = getelementptr inbounds %"class.sat::literal", ptr %agg.tmp31, i32 0, i32 0
  %36 = load i32, ptr %coerce.dive35, align 4
  call void @"_ZZN3sat11npn3_finder15process_clausesER10ptr_vectorINS_6clauseEER9hashtableINS0_6binaryENS6_4hashENS6_2eqEERS5_INS0_7ternaryENSB_4hashENSB_2eqEEENK3$_1clENS_7literalESH_SH_PS2_"(ptr noundef nonnull align 8 dereferenceable(16) %29, i32 %34, i32 %35, i32 %36, ptr noundef %33)
  br label %if.end

if.end:                                           ; preds = %if.then, %entry
  ret void
}