; Function Attrs: mustprogress uwtable
define internal fastcc void @"_ZZN3sat11npn3_finder15process_clausesER10ptr_vectorINS_6clauseEER9hashtableINS0_6binaryENS6_4hashENS6_2eqEERS5_INS0_7ternaryENSB_4hashENSB_2eqEEENK3$_0clERS2_"(ptr nocapture noundef nonnull readonly align 8 dereferenceable(16) %this, ptr noundef nonnull align 4 dereferenceable(20) %c) unnamed_addr #7 align 2 {
entry:
  %ref.tmp = alloca %"struct.sat::npn3_finder::ternary", align 8
  %m_size.i = getelementptr inbounds i8, ptr %c, i64 4
  %0 = load i32, ptr %m_size.i, align 4
  %cmp = icmp eq i32 %0, 3
  br i1 %cmp, label %if.then, label %if.end

if.then:                                          ; preds = %entry
  %1 = load ptr, ptr %this, align 8
  %m_lits.i = getelementptr inbounds i8, ptr %c, i64 20
  %agg.tmp.sroa.0.0.copyload = load i32, ptr %m_lits.i, align 4
  %arrayidx.i = getelementptr inbounds i8, ptr %c, i64 24
  %agg.tmp3.sroa.0.0.copyload = load i32, ptr %arrayidx.i, align 4
  %arrayidx.i24 = getelementptr inbounds i8, ptr %c, i64 28
  %agg.tmp5.sroa.0.0.copyload = load i32, ptr %arrayidx.i24, align 4
  store i32 %agg.tmp.sroa.0.0.copyload, ptr %ref.tmp, align 8
  %y.i = getelementptr inbounds i8, ptr %ref.tmp, i64 4
  store i32 %agg.tmp3.sroa.0.0.copyload, ptr %y.i, align 4
  %z.i = getelementptr inbounds i8, ptr %ref.tmp, i64 8
  store i32 %agg.tmp5.sroa.0.0.copyload, ptr %z.i, align 8
  %orig.i = getelementptr inbounds i8, ptr %ref.tmp, i64 16
  store ptr %c, ptr %orig.i, align 8
  %cmp.i = icmp ugt i32 %agg.tmp.sroa.0.0.copyload, %agg.tmp3.sroa.0.0.copyload
  br i1 %cmp.i, label %if.then.i, label %if.end.i

if.then.i:                                        ; preds = %if.then
  store i32 %agg.tmp3.sroa.0.0.copyload, ptr %ref.tmp, align 8
  store i32 %agg.tmp.sroa.0.0.copyload, ptr %y.i, align 4
  br label %if.end.i

if.end.i:                                         ; preds = %if.then.i, %if.then
  %2 = phi i32 [ %agg.tmp3.sroa.0.0.copyload, %if.then.i ], [ %agg.tmp.sroa.0.0.copyload, %if.then ]
  %3 = phi i32 [ %agg.tmp.sroa.0.0.copyload, %if.then.i ], [ %agg.tmp3.sroa.0.0.copyload, %if.then ]
  %cmp13.i = icmp ugt i32 %3, %agg.tmp5.sroa.0.0.copyload
  br i1 %cmp13.i, label %if.then14.i, label %if.end17.i

if.then14.i:                                      ; preds = %if.end.i
  store i32 %agg.tmp5.sroa.0.0.copyload, ptr %y.i, align 4
  store i32 %3, ptr %z.i, align 8
  br label %if.end17.i

if.end17.i:                                       ; preds = %if.then14.i, %if.end.i
  %4 = phi i32 [ %agg.tmp5.sroa.0.0.copyload, %if.then14.i ], [ %3, %if.end.i ]
  %cmp22.i = icmp ugt i32 %2, %4
  br i1 %cmp22.i, label %if.then23.i, label %_ZN3sat11npn3_finder7ternaryC2ENS_7literalES2_S2_PNS_6clauseE.exit

if.then23.i:                                      ; preds = %if.end17.i
  store i32 %4, ptr %ref.tmp, align 8
  store i32 %2, ptr %y.i, align 4
  br label %_ZN3sat11npn3_finder7ternaryC2ENS_7literalES2_S2_PNS_6clauseE.exit

_ZN3sat11npn3_finder7ternaryC2ENS_7literalES2_S2_PNS_6clauseE.exit: ; preds = %if.end17.i, %if.then23.i
  call void @_ZN14core_hashtableI18default_hash_entryIN3sat11npn3_finder7ternaryEENS3_4hashENS3_2eqEE6insertEOS3_(ptr noundef nonnull align 8 dereferenceable(20) %1, ptr noundef nonnull align 8 dereferenceable(24) %ref.tmp)
  %5 = getelementptr inbounds i8, ptr %this, i64 8
  %6 = load ptr, ptr %5, align 8
  %agg.tmp9.sroa.0.0.copyload = load i32, ptr %m_lits.i, align 4
  %agg.tmp11.sroa.0.0.copyload = load i32, ptr %arrayidx.i, align 4
  %agg.tmp13.sroa.0.0.copyload = load i32, ptr %arrayidx.i24, align 4
  %.val = load ptr, ptr %6, align 8
  %7 = getelementptr i8, ptr %6, i64 8
  %.val17 = load ptr, ptr %7, align 8
  call fastcc void @"_ZZN3sat11npn3_finder15process_clausesER10ptr_vectorINS_6clauseEER9hashtableINS0_6binaryENS6_4hashENS6_2eqEERS5_INS0_7ternaryENSB_4hashENSB_2eqEEENK3$_1clENS_7literalESH_SH_PS2_"(ptr %.val, ptr %.val17, i32 %agg.tmp9.sroa.0.0.copyload, i32 %agg.tmp11.sroa.0.0.copyload, i32 %agg.tmp13.sroa.0.0.copyload, ptr noundef nonnull %c)
  %8 = load ptr, ptr %5, align 8
  %agg.tmp18.sroa.0.0.copyload = load i32, ptr %m_lits.i, align 4
  %agg.tmp20.sroa.0.0.copyload = load i32, ptr %arrayidx.i24, align 4
  %agg.tmp22.sroa.0.0.copyload = load i32, ptr %arrayidx.i, align 4
  %.val18 = load ptr, ptr %8, align 8
  %9 = getelementptr i8, ptr %8, i64 8
  %.val19 = load ptr, ptr %9, align 8
  call fastcc void @"_ZZN3sat11npn3_finder15process_clausesER10ptr_vectorINS_6clauseEER9hashtableINS0_6binaryENS6_4hashENS6_2eqEERS5_INS0_7ternaryENSB_4hashENSB_2eqEEENK3$_1clENS_7literalESH_SH_PS2_"(ptr %.val18, ptr %.val19, i32 %agg.tmp18.sroa.0.0.copyload, i32 %agg.tmp20.sroa.0.0.copyload, i32 %agg.tmp22.sroa.0.0.copyload, ptr noundef nonnull %c)
  %10 = load ptr, ptr %5, align 8
  %agg.tmp27.sroa.0.0.copyload = load i32, ptr %arrayidx.i24, align 4
  %agg.tmp29.sroa.0.0.copyload = load i32, ptr %arrayidx.i, align 4
  %agg.tmp31.sroa.0.0.copyload = load i32, ptr %m_lits.i, align 4
  %.val20 = load ptr, ptr %10, align 8
  %11 = getelementptr i8, ptr %10, i64 8
  %.val21 = load ptr, ptr %11, align 8
  call fastcc void @"_ZZN3sat11npn3_finder15process_clausesER10ptr_vectorINS_6clauseEER9hashtableINS0_6binaryENS6_4hashENS6_2eqEERS5_INS0_7ternaryENSB_4hashENSB_2eqEEENK3$_1clENS_7literalESH_SH_PS2_"(ptr %.val20, ptr %.val21, i32 %agg.tmp27.sroa.0.0.copyload, i32 %agg.tmp29.sroa.0.0.copyload, i32 %agg.tmp31.sroa.0.0.copyload, ptr noundef nonnull %c)
  br label %if.end

if.end:                                           ; preds = %_ZN3sat11npn3_finder7ternaryC2ENS_7literalES2_S2_PNS_6clauseE.exit, %entry
  ret void
}